target datalayout = "e-m:e-p270:32:32-p271:32:32-p272:64:64-i64:64-i128:128-f80:128-n8:16:32:64-S128"
target triple = "x86_64-unknown-linux-gnu"

%struct.eth_header = type { [6 x i8], [6 x i8], i16 }
%struct.timeval = type { i64, i64 }

@trace_events_enabled_count = external global i32, align 4
@message_with_timestamp = external global i8, align 1
@qemu_loglevel = external global i32, align 4
@_TRACE_E1000X_VLAN_IS_VLAN_PKT_DSTATE = external global i16, align 2
@.str.2 = private unnamed_addr constant [85 x i8] c"%d@%zu.%06zu:e1000x_vlan_is_vlan_pkt Is VLAN packet: %d, ETH proto: 0x%X, VET: 0x%X\0A\00", align 1
@.str.3 = private unnamed_addr constant [72 x i8] c"e1000x_vlan_is_vlan_pkt Is VLAN packet: %d, ETH proto: 0x%X, VET: 0x%X\0A\00", align 1

; Function Attrs: nounwind sspstrong uwtable
define internal zeroext i1 @qemu_loglevel_mask(i32 noundef %mask) #0 {
entry:
  %mask.addr = alloca i32, align 4
  store i32 %mask, ptr %mask.addr, align 4
  %0 = load i32, ptr @qemu_loglevel, align 4
  %1 = load i32, ptr %mask.addr, align 4
  %and = and i32 %0, %1
  %cmp = icmp ne i32 %and, 0
  ret i1 %cmp
}

; Function Attrs: nounwind sspstrong uwtable
define internal void @_nocheck__trace_e1000x_vlan_is_vlan_pkt(i1 noundef zeroext %is_vlan_pkt, i16 noundef zeroext %eth_proto, i16 noundef zeroext %vet) #0 {
entry:
  %is_vlan_pkt.addr = alloca i8, align 1
  %eth_proto.addr = alloca i16, align 2
  %vet.addr = alloca i16, align 2
  %_now = alloca %struct.timeval, align 8
  %frombool = zext i1 %is_vlan_pkt to i8
  store i8 %frombool, ptr %is_vlan_pkt.addr, align 1
  store i16 %eth_proto, ptr %eth_proto.addr, align 2
  store i16 %vet, ptr %vet.addr, align 2
  %0 = load i32, ptr @trace_events_enabled_count, align 4
  %tobool = icmp ne i32 %0, 0
  %lnot = xor i1 %tobool, true
  %lnot1 = xor i1 %lnot, true
  %lnot.ext = zext i1 %lnot1 to i32
  %conv = sext i32 %lnot.ext to i64
  %tobool2 = icmp ne i64 %conv, 0
  br i1 %tobool2, label %land.lhs.true, label %if.end19

land.lhs.true:                                    ; preds = %entry
  %1 = load i16, ptr @_TRACE_E1000X_VLAN_IS_VLAN_PKT_DSTATE, align 2
  %conv3 = zext i16 %1 to i32
  %tobool4 = icmp ne i32 %conv3, 0
  br i1 %tobool4, label %land.lhs.true5, label %if.end19

land.lhs.true5:                                   ; preds = %land.lhs.true
  %call = call zeroext i1 @qemu_loglevel_mask(i32 noundef 32768)
  br i1 %call, label %if.then, label %if.end19

if.then:                                          ; preds = %land.lhs.true5
  %2 = load i8, ptr @message_with_timestamp, align 1
  %tobool7 = trunc i8 %2 to i1
  br i1 %tobool7, label %if.then8, label %if.else

if.then8:                                         ; preds = %if.then
  %call9 = call i32 @gettimeofday(ptr noundef %_now, ptr noundef null) #7
  %call10 = call i32 @qemu_get_thread_id()
  %tv_sec = getelementptr inbounds %struct.timeval, ptr %_now, i32 0, i32 0
  %3 = load i64, ptr %tv_sec, align 8
  %tv_usec = getelementptr inbounds %struct.timeval, ptr %_now, i32 0, i32 1
  %4 = load i64, ptr %tv_usec, align 8
  %5 = load i8, ptr %is_vlan_pkt.addr, align 1
  %tobool11 = trunc i8 %5 to i1
  %conv12 = zext i1 %tobool11 to i32
  %6 = load i16, ptr %eth_proto.addr, align 2
  %conv13 = zext i16 %6 to i32
  %7 = load i16, ptr %vet.addr, align 2
  %conv14 = zext i16 %7 to i32
  call void (ptr, ...) @qemu_log(ptr noundef @.str.2, i32 noundef %call10, i64 noundef %3, i64 noundef %4, i32 noundef %conv12, i32 noundef %conv13, i32 noundef %conv14)
  br label %if.end

if.else:                                          ; preds = %if.then
  %8 = load i8, ptr %is_vlan_pkt.addr, align 1
  %tobool15 = trunc i8 %8 to i1
  %conv16 = zext i1 %tobool15 to i32
  %9 = load i16, ptr %eth_proto.addr, align 2
  %conv17 = zext i16 %9 to i32
  %10 = load i16, ptr %vet.addr, align 2
  %conv18 = zext i16 %10 to i32
  call void (ptr, ...) @qemu_log(ptr noundef @.str.3, i32 noundef %conv16, i32 noundef %conv17, i32 noundef %conv18)
  br label %if.end

if.end:                                           ; preds = %if.else, %if.then8
  br label %if.end19

if.end19:                                         ; preds = %if.end, %land.lhs.true5, %land.lhs.true, %entry
  ret void
}

; Function Attrs: nounwind sspstrong uwtable
define internal i32 @lduw_he_p(ptr noundef %ptr) #0 {
entry:
  %ptr.addr = alloca ptr, align 8
  %r = alloca i16, align 2
  store ptr %ptr, ptr %ptr.addr, align 8
  %0 = load ptr, ptr %ptr.addr, align 8
  call void @llvm.memcpy.p0.p0.i64(ptr align 2 %r, ptr align 1 %0, i64 2, i1 false)
  %1 = load i16, ptr %r, align 2
  %conv = zext i16 %1 to i32
  ret i32 %conv
}

; Function Attrs: nounwind sspstrong uwtable
define internal void @trace_e1000x_vlan_is_vlan_pkt(i1 noundef zeroext %is_vlan_pkt, i16 noundef zeroext %eth_proto, i16 noundef zeroext %vet) #0 {
entry:
  %is_vlan_pkt.addr = alloca i8, align 1
  %eth_proto.addr = alloca i16, align 2
  %vet.addr = alloca i16, align 2
  %frombool = zext i1 %is_vlan_pkt to i8
  store i8 %frombool, ptr %is_vlan_pkt.addr, align 1
  store i16 %eth_proto, ptr %eth_proto.addr, align 2
  store i16 %vet, ptr %vet.addr, align 2
  %0 = load i8, ptr %is_vlan_pkt.addr, align 1
  %tobool = trunc i8 %0 to i1
  %1 = load i16, ptr %eth_proto.addr, align 2
  %2 = load i16, ptr %vet.addr, align 2
  call void @_nocheck__trace_e1000x_vlan_is_vlan_pkt(i1 noundef zeroext %tobool, i16 noundef zeroext %1, i16 noundef zeroext %2)
  ret void
}

; Function Attrs: nounwind sspstrong uwtable
define internal i32 @lduw_be_p(ptr noundef %ptr) #0 {
entry:
  %ptr.addr = alloca ptr, align 8
  store ptr %ptr, ptr %ptr.addr, align 8
  %0 = load ptr, ptr %ptr.addr, align 8
  %call = call i32 @lduw_he_p(ptr noundef %0)
  %conv = trunc i32 %call to i16
  %1 = call i16 @llvm.bswap.i16(i16 %conv)
  %conv1 = zext i16 %1 to i32
  ret i32 %conv1
}

; Function Attrs: nounwind sspstrong uwtable
define dso_local zeroext i1 @e1000x_is_vlan_packet(ptr noundef %buf, i16 noundef zeroext %vet) #0 {
entry:
  %buf.addr = alloca ptr, align 8
  %vet.addr = alloca i16, align 2
  %eth_proto = alloca i16, align 2
  %res = alloca i8, align 1
  store ptr %buf, ptr %buf.addr, align 8
  store i16 %vet, ptr %vet.addr, align 2
  %0 = load ptr, ptr %buf.addr, align 8
  %h_proto = getelementptr inbounds %struct.eth_header, ptr %0, i32 0, i32 2
  %call = call i32 @lduw_be_p(ptr noundef %h_proto)
  %conv = trunc i32 %call to i16
  store i16 %conv, ptr %eth_proto, align 2
  %1 = load i16, ptr %eth_proto, align 2
  %conv1 = zext i16 %1 to i32
  %2 = load i16, ptr %vet.addr, align 2
  %conv2 = zext i16 %2 to i32
  %cmp = icmp eq i32 %conv1, %conv2
  %frombool = zext i1 %cmp to i8
  store i8 %frombool, ptr %res, align 1
  %3 = load i8, ptr %res, align 1
  %tobool = trunc i8 %3 to i1
  %4 = load i16, ptr %eth_proto, align 2
  %5 = load i16, ptr %vet.addr, align 2
  call void @trace_e1000x_vlan_is_vlan_pkt(i1 noundef zeroext %tobool, i16 noundef zeroext %4, i16 noundef zeroext %5)
  %6 = load i8, ptr %res, align 1
  %tobool4 = trunc i8 %6 to i1
  ret i1 %tobool4
}