; Function Attrs: nounwind sspstrong uwtable
define dso_local zeroext i1 @e1000x_is_vlan_packet(ptr noundef readonly captures(none) %buf, i16 noundef zeroext %vet) local_unnamed_addr #0 {
entry:
  %_now.i.i = alloca %struct.timeval, align 8
  %h_proto = getelementptr inbounds nuw i8, ptr %buf, i64 12
  %h_proto.val = load i16, ptr %h_proto, align 1
  %0 = tail call i16 @llvm.bswap.i16(i16 %h_proto.val)
  %conv1.i = zext i16 %0 to i32
  %conv2 = zext i16 %vet to i32
  %cmp = icmp eq i16 %0, %vet
  call void @llvm.lifetime.start.p0(i64 16, ptr nonnull %_now.i.i)
  %1 = load i32, ptr @trace_events_enabled_count, align 4
  %tobool.i.i = icmp ne i32 %1, 0
  %2 = load i16, ptr @_TRACE_E1000X_VLAN_IS_VLAN_PKT_DSTATE, align 2
  %tobool4.i.i = icmp ne i16 %2, 0
  %or.cond.i.i = select i1 %tobool.i.i, i1 %tobool4.i.i, i1 false
  br i1 %or.cond.i.i, label %land.lhs.true5.i.i, label %trace_e1000x_vlan_is_vlan_pkt.exit

land.lhs.true5.i.i:                               ; preds = %entry
  %3 = load i32, ptr @qemu_loglevel, align 4
  %and.i.i.i = and i32 %3, 32768
  %cmp.i.not.i.i = icmp eq i32 %and.i.i.i, 0
  br i1 %cmp.i.not.i.i, label %trace_e1000x_vlan_is_vlan_pkt.exit, label %if.then.i.i

if.then.i.i:                                      ; preds = %land.lhs.true5.i.i
  %4 = load i8, ptr @message_with_timestamp, align 1
  %tobool7.i.i = trunc i8 %4 to i1
  br i1 %tobool7.i.i, label %if.then8.i.i, label %if.else.i.i

if.then8.i.i:                                     ; preds = %if.then.i.i
  %call9.i.i = call i32 @gettimeofday(ptr noundef nonnull %_now.i.i, ptr noundef null) #11
  %call10.i.i = tail call i32 @qemu_get_thread_id() #11
  %5 = load i64, ptr %_now.i.i, align 8
  %tv_usec.i.i = getelementptr inbounds nuw i8, ptr %_now.i.i, i64 8
  %6 = load i64, ptr %tv_usec.i.i, align 8
  %conv12.i.i = zext i1 %cmp to i32
  tail call void (ptr, ...) @qemu_log(ptr noundef nonnull @.str.2, i32 noundef %call10.i.i, i64 noundef %5, i64 noundef %6, i32 noundef %conv12.i.i, i32 noundef %conv1.i, i32 noundef %conv2) #11
  br label %trace_e1000x_vlan_is_vlan_pkt.exit

if.else.i.i:                                      ; preds = %if.then.i.i
  %conv16.i.i = zext i1 %cmp to i32
  tail call void (ptr, ...) @qemu_log(ptr noundef nonnull @.str.3, i32 noundef %conv16.i.i, i32 noundef %conv1.i, i32 noundef %conv2) #11
  br label %trace_e1000x_vlan_is_vlan_pkt.exit

trace_e1000x_vlan_is_vlan_pkt.exit:               ; preds = %entry, %land.lhs.true5.i.i, %if.then8.i.i, %if.else.i.i
  call void @llvm.lifetime.end.p0(i64 16, ptr nonnull %_now.i.i)
  ret i1 %cmp
}